target datalayout = "e-m:e-p270:32:32-p271:32:32-p272:64:64-i64:64-i128:128-f80:128-n8:16:32:64-S128"
target triple = "x86_64-pc-linux-gnu"

%struct._address = type { i32, i32, ptr, ptr }
%struct.conversation_element = type { i32, %union.anon }
%union.anon = type { %struct._address }
%struct.conversation = type { ptr, ptr, ptr, i32, i32, i32, ptr, ptr, i32, ptr }

@.str = private unnamed_addr constant [29 x i8] c"%s:%u: failed assertion \22%s\22\00", align 1
@.str.1 = private unnamed_addr constant [20 x i8] c"epan/conversation.c\00", align 1
@.str.28 = private unnamed_addr constant [10 x i8] c"count < 8\00", align 1

; Function Attrs: nounwind null_pointer_is_valid sspstrong uwtable
define internal zeroext i1 @is_no_addr2_key(ptr noundef %0) #4 {
  %2 = alloca i1, align 1
  %3 = alloca ptr, align 8
  store ptr %0, ptr %3, align 8
  %4 = load ptr, ptr %3, align 8
  %5 = getelementptr %struct.conversation_element, ptr %4, i64 0
  %6 = getelementptr inbounds nuw %struct.conversation_element, ptr %5, i32 0, i32 0
  %7 = load i32, ptr %6, align 8
  %8 = icmp eq i32 %7, 1
  br i1 %8, label %9, label %28

9:                                                ; preds = %1
  %10 = load ptr, ptr %3, align 8
  %11 = getelementptr %struct.conversation_element, ptr %10, i64 1
  %12 = getelementptr inbounds nuw %struct.conversation_element, ptr %11, i32 0, i32 0
  %13 = load i32, ptr %12, align 8
  %14 = icmp eq i32 %13, 2
  br i1 %14, label %15, label %28

15:                                               ; preds = %9
  %16 = load ptr, ptr %3, align 8
  %17 = getelementptr %struct.conversation_element, ptr %16, i64 2
  %18 = getelementptr inbounds nuw %struct.conversation_element, ptr %17, i32 0, i32 0
  %19 = load i32, ptr %18, align 8
  %20 = icmp eq i32 %19, 2
  br i1 %20, label %21, label %28

21:                                               ; preds = %15
  %22 = load ptr, ptr %3, align 8
  %23 = getelementptr %struct.conversation_element, ptr %22, i64 3
  %24 = getelementptr inbounds nuw %struct.conversation_element, ptr %23, i32 0, i32 0
  %25 = load i32, ptr %24, align 8
  %26 = icmp eq i32 %25, 0
  br i1 %26, label %27, label %28

27:                                               ; preds = %21
  store i1 true, ptr %2, align 1
  br label %29

28:                                               ; preds = %21, %15, %9, %1
  store i1 false, ptr %2, align 1
  br label %29

29:                                               ; preds = %28, %27
  %30 = load i1, ptr %2, align 1
  ret i1 %30
}

; Function Attrs: nounwind null_pointer_is_valid sspstrong uwtable
define internal zeroext i1 @is_no_port2_key(ptr noundef %0) #4 {
  %2 = alloca i1, align 1
  %3 = alloca ptr, align 8
  store ptr %0, ptr %3, align 8
  %4 = load ptr, ptr %3, align 8
  %5 = getelementptr %struct.conversation_element, ptr %4, i64 0
  %6 = getelementptr inbounds nuw %struct.conversation_element, ptr %5, i32 0, i32 0
  %7 = load i32, ptr %6, align 8
  %8 = icmp eq i32 %7, 1
  br i1 %8, label %9, label %28

9:                                                ; preds = %1
  %10 = load ptr, ptr %3, align 8
  %11 = getelementptr %struct.conversation_element, ptr %10, i64 1
  %12 = getelementptr inbounds nuw %struct.conversation_element, ptr %11, i32 0, i32 0
  %13 = load i32, ptr %12, align 8
  %14 = icmp eq i32 %13, 2
  br i1 %14, label %15, label %28

15:                                               ; preds = %9
  %16 = load ptr, ptr %3, align 8
  %17 = getelementptr %struct.conversation_element, ptr %16, i64 2
  %18 = getelementptr inbounds nuw %struct.conversation_element, ptr %17, i32 0, i32 0
  %19 = load i32, ptr %18, align 8
  %20 = icmp eq i32 %19, 1
  br i1 %20, label %21, label %28

21:                                               ; preds = %15
  %22 = load ptr, ptr %3, align 8
  %23 = getelementptr %struct.conversation_element, ptr %22, i64 3
  %24 = getelementptr inbounds nuw %struct.conversation_element, ptr %23, i32 0, i32 0
  %25 = load i32, ptr %24, align 8
  %26 = icmp eq i32 %25, 0
  br i1 %26, label %27, label %28

27:                                               ; preds = %21
  store i1 true, ptr %2, align 1
  br label %29

28:                                               ; preds = %21, %15, %9, %1
  store i1 false, ptr %2, align 1
  br label %29

29:                                               ; preds = %28, %27
  %30 = load i1, ptr %2, align 1
  ret i1 %30
}

; Function Attrs: nounwind null_pointer_is_valid sspstrong uwtable
define internal zeroext i1 @is_no_addr2_port2_key(ptr noundef %0) #4 {
  %2 = alloca i1, align 1
  %3 = alloca ptr, align 8
  store ptr %0, ptr %3, align 8
  %4 = load ptr, ptr %3, align 8
  %5 = getelementptr %struct.conversation_element, ptr %4, i64 0
  %6 = getelementptr inbounds nuw %struct.conversation_element, ptr %5, i32 0, i32 0
  %7 = load i32, ptr %6, align 8
  %8 = icmp eq i32 %7, 1
  br i1 %8, label %9, label %22

9:                                                ; preds = %1
  %10 = load ptr, ptr %3, align 8
  %11 = getelementptr %struct.conversation_element, ptr %10, i64 1
  %12 = getelementptr inbounds nuw %struct.conversation_element, ptr %11, i32 0, i32 0
  %13 = load i32, ptr %12, align 8
  %14 = icmp eq i32 %13, 2
  br i1 %14, label %15, label %22

15:                                               ; preds = %9
  %16 = load ptr, ptr %3, align 8
  %17 = getelementptr %struct.conversation_element, ptr %16, i64 2
  %18 = getelementptr inbounds nuw %struct.conversation_element, ptr %17, i32 0, i32 0
  %19 = load i32, ptr %18, align 8
  %20 = icmp eq i32 %19, 0
  br i1 %20, label %21, label %22

21:                                               ; preds = %15
  store i1 true, ptr %2, align 1
  br label %23

22:                                               ; preds = %15, %9, %1
  store i1 false, ptr %2, align 1
  br label %23

23:                                               ; preds = %22, %21
  %24 = load i1, ptr %2, align 1
  ret i1 %24
}

; Function Attrs: null_pointer_is_valid sspstrong uwtable
define internal i32 @conversation_get_key_type(ptr noundef %0) #0 {
  %2 = alloca ptr, align 8
  %3 = alloca i64, align 8
  store ptr %0, ptr %2, align 8
  call void @llvm.lifetime.start.p0(i64 8, ptr %3) #12
  store i64 0, ptr %3, align 8
  br label %4

4:                                                ; preds = %19, %1
  %5 = load ptr, ptr %2, align 8
  %6 = load i64, ptr %3, align 8
  %7 = getelementptr %struct.conversation_element, ptr %5, i64 %6
  %8 = getelementptr inbounds nuw %struct.conversation_element, ptr %7, i32 0, i32 0
  %9 = load i32, ptr %8, align 8
  %10 = icmp ne i32 %9, 0
  br i1 %10, label %11, label %20

11:                                               ; preds = %4
  %12 = load i64, ptr %3, align 8
  %13 = add i64 %12, 1
  store i64 %13, ptr %3, align 8
  %14 = load i64, ptr %3, align 8
  %15 = icmp ult i64 %14, 8
  br i1 %15, label %16, label %17

16:                                               ; preds = %11
  br label %19

17:                                               ; preds = %11
  call void (ptr, ...) @proto_report_dissector_bug(ptr noundef @.str, ptr noundef @.str.1, i32 noundef 203, ptr noundef @.str.28) #13
  unreachable

18:                                               ; No predecessors!
  br label %19

19:                                               ; preds = %18, %16
  br label %4, !llvm.loop !16

20:                                               ; preds = %4
  %21 = load ptr, ptr %2, align 8
  %22 = load i64, ptr %3, align 8
  %23 = getelementptr %struct.conversation_element, ptr %21, i64 %22
  %24 = getelementptr inbounds nuw %struct.conversation_element, ptr %23, i32 0, i32 1
  %25 = load i32, ptr %24, align 8
  call void @llvm.lifetime.end.p0(i64 8, ptr %3) #12
  ret i32 %25
}

; Function Attrs: null_pointer_is_valid sspstrong uwtable
define internal ptr @conversation_create_from_template(ptr noundef %0, ptr noundef %1, i32 noundef %2) #0 {
  %4 = alloca ptr, align 8
  %5 = alloca ptr, align 8
  %6 = alloca ptr, align 8
  %7 = alloca i32, align 4
  %8 = alloca i32, align 4
  %9 = alloca ptr, align 8
  %10 = alloca i32, align 4
  %11 = alloca i32, align 4
  store ptr %0, ptr %5, align 8
  store ptr %1, ptr %6, align 8
  store i32 %2, ptr %7, align 4
  call void @llvm.lifetime.start.p0(i64 4, ptr %8) #12
  %12 = load ptr, ptr %5, align 8
  %13 = getelementptr inbounds nuw %struct.conversation, ptr %12, i32 0, i32 9
  %14 = load ptr, ptr %13, align 8
  %15 = call i32 @conversation_get_key_type(ptr noundef %14)
  store i32 %15, ptr %8, align 4
  %16 = load ptr, ptr %5, align 8
  %17 = getelementptr inbounds nuw %struct.conversation, ptr %16, i32 0, i32 8
  %18 = load i32, ptr %17, align 8
  %19 = and i32 %18, 8
  %20 = icmp ne i32 %19, 0
  br i1 %20, label %21, label %148

21:                                               ; preds = %3
  %22 = load i32, ptr %8, align 4
  %23 = icmp ne i32 %22, 3
  br i1 %23, label %24, label %148

24:                                               ; preds = %21
  call void @llvm.lifetime.start.p0(i64 8, ptr %9) #12
  call void @llvm.lifetime.start.p0(i64 4, ptr %10) #12
  %25 = load ptr, ptr %5, align 8
  %26 = getelementptr inbounds nuw %struct.conversation, ptr %25, i32 0, i32 8
  %27 = load i32, ptr %26, align 8
  %28 = and i32 %27, -12
  store i32 %28, ptr %10, align 4
  %29 = load ptr, ptr %5, align 8
  %30 = getelementptr inbounds nuw %struct.conversation, ptr %29, i32 0, i32 8
  %31 = load i32, ptr %30, align 8
  %32 = and i32 %31, 1
  %33 = icmp ne i32 %32, 0
  br i1 %33, label %34, label %65

34:                                               ; preds = %24
  %35 = load ptr, ptr %5, align 8
  %36 = getelementptr inbounds nuw %struct.conversation, ptr %35, i32 0, i32 8
  %37 = load i32, ptr %36, align 8
  %38 = and i32 %37, 2
  %39 = icmp ne i32 %38, 0
  br i1 %39, label %40, label %65

40:                                               ; preds = %34
  %41 = load ptr, ptr %5, align 8
  %42 = getelementptr inbounds nuw %struct.conversation, ptr %41, i32 0, i32 9
  %43 = load ptr, ptr %42, align 8
  %44 = call zeroext i1 @is_no_addr2_port2_key(ptr noundef %43)
  br i1 %44, label %45, label %65

45:                                               ; preds = %40
  %46 = load ptr, ptr %5, align 8
  %47 = getelementptr inbounds nuw %struct.conversation, ptr %46, i32 0, i32 4
  %48 = load i32, ptr %47, align 4
  %49 = load ptr, ptr %5, align 8
  %50 = getelementptr inbounds nuw %struct.conversation, ptr %49, i32 0, i32 9
  %51 = load ptr, ptr %50, align 8
  %52 = getelementptr %struct.conversation_element, ptr %51, i64 0
  %53 = getelementptr inbounds nuw %struct.conversation_element, ptr %52, i32 0, i32 1
  %54 = load ptr, ptr %6, align 8
  %55 = load i32, ptr %8, align 4
  %56 = load ptr, ptr %5, align 8
  %57 = getelementptr inbounds nuw %struct.conversation, ptr %56, i32 0, i32 9
  %58 = load ptr, ptr %57, align 8
  %59 = getelementptr %struct.conversation_element, ptr %58, i64 1
  %60 = getelementptr inbounds nuw %struct.conversation_element, ptr %59, i32 0, i32 1
  %61 = load i32, ptr %60, align 8
  %62 = load i32, ptr %7, align 4
  %63 = load i32, ptr %10, align 4
  %64 = call ptr @conversation_new(i32 noundef %48, ptr noundef %53, ptr noundef %54, i32 noundef %55, i32 noundef %61, i32 noundef %62, i32 noundef %63)
  store ptr %64, ptr %9, align 8
  br label %140

65:                                               ; preds = %40, %34, %24
  %66 = load ptr, ptr %5, align 8
  %67 = getelementptr inbounds nuw %struct.conversation, ptr %66, i32 0, i32 8
  %68 = load i32, ptr %67, align 8
  %69 = and i32 %68, 2
  %70 = icmp ne i32 %69, 0
  br i1 %70, label %71, label %100

71:                                               ; preds = %65
  %72 = load ptr, ptr %5, align 8
  %73 = getelementptr inbounds nuw %struct.conversation, ptr %72, i32 0, i32 9
  %74 = load ptr, ptr %73, align 8
  %75 = call zeroext i1 @is_no_port2_key(ptr noundef %74)
  br i1 %75, label %76, label %100

76:                                               ; preds = %71
  %77 = load ptr, ptr %5, align 8
  %78 = getelementptr inbounds nuw %struct.conversation, ptr %77, i32 0, i32 4
  %79 = load i32, ptr %78, align 4
  %80 = load ptr, ptr %5, align 8
  %81 = getelementptr inbounds nuw %struct.conversation, ptr %80, i32 0, i32 9
  %82 = load ptr, ptr %81, align 8
  %83 = getelementptr %struct.conversation_element, ptr %82, i64 0
  %84 = getelementptr inbounds nuw %struct.conversation_element, ptr %83, i32 0, i32 1
  %85 = load ptr, ptr %5, align 8
  %86 = getelementptr inbounds nuw %struct.conversation, ptr %85, i32 0, i32 9
  %87 = load ptr, ptr %86, align 8
  %88 = getelementptr %struct.conversation_element, ptr %87, i64 2
  %89 = getelementptr inbounds nuw %struct.conversation_element, ptr %88, i32 0, i32 1
  %90 = load i32, ptr %8, align 4
  %91 = load ptr, ptr %5, align 8
  %92 = getelementptr inbounds nuw %struct.conversation, ptr %91, i32 0, i32 9
  %93 = load ptr, ptr %92, align 8
  %94 = getelementptr %struct.conversation_element, ptr %93, i64 1
  %95 = getelementptr inbounds nuw %struct.conversation_element, ptr %94, i32 0, i32 1
  %96 = load i32, ptr %95, align 8
  %97 = load i32, ptr %7, align 4
  %98 = load i32, ptr %10, align 4
  %99 = call ptr @conversation_new(i32 noundef %79, ptr noundef %84, ptr noundef %89, i32 noundef %90, i32 noundef %96, i32 noundef %97, i32 noundef %98)
  store ptr %99, ptr %9, align 8
  br label %139

100:                                              ; preds = %71, %65
  %101 = load ptr, ptr %5, align 8
  %102 = getelementptr inbounds nuw %struct.conversation, ptr %101, i32 0, i32 8
  %103 = load i32, ptr %102, align 8
  %104 = and i32 %103, 1
  %105 = icmp ne i32 %104, 0
  br i1 %105, label %106, label %136

106:                                              ; preds = %100
  %107 = load ptr, ptr %5, align 8
  %108 = getelementptr inbounds nuw %struct.conversation, ptr %107, i32 0, i32 9
  %109 = load ptr, ptr %108, align 8
  %110 = call zeroext i1 @is_no_addr2_key(ptr noundef %109)
  br i1 %110, label %111, label %136

111:                                              ; preds = %106
  %112 = load ptr, ptr %5, align 8
  %113 = getelementptr inbounds nuw %struct.conversation, ptr %112, i32 0, i32 4
  %114 = load i32, ptr %113, align 4
  %115 = load ptr, ptr %5, align 8
  %116 = getelementptr inbounds nuw %struct.conversation, ptr %115, i32 0, i32 9
  %117 = load ptr, ptr %116, align 8
  %118 = getelementptr %struct.conversation_element, ptr %117, i64 0
  %119 = getelementptr inbounds nuw %struct.conversation_element, ptr %118, i32 0, i32 1
  %120 = load ptr, ptr %6, align 8
  %121 = load i32, ptr %8, align 4
  %122 = load ptr, ptr %5, align 8
  %123 = getelementptr inbounds nuw %struct.conversation, ptr %122, i32 0, i32 9
  %124 = load ptr, ptr %123, align 8
  %125 = getelementptr %struct.conversation_element, ptr %124, i64 1
  %126 = getelementptr inbounds nuw %struct.conversation_element, ptr %125, i32 0, i32 1
  %127 = load i32, ptr %126, align 8
  %128 = load ptr, ptr %5, align 8
  %129 = getelementptr inbounds nuw %struct.conversation, ptr %128, i32 0, i32 9
  %130 = load ptr, ptr %129, align 8
  %131 = getelementptr %struct.conversation_element, ptr %130, i64 2
  %132 = getelementptr inbounds nuw %struct.conversation_element, ptr %131, i32 0, i32 1
  %133 = load i32, ptr %132, align 8
  %134 = load i32, ptr %10, align 4
  %135 = call ptr @conversation_new(i32 noundef %114, ptr noundef %119, ptr noundef %120, i32 noundef %121, i32 noundef %127, i32 noundef %133, i32 noundef %134)
  store ptr %135, ptr %9, align 8
  br label %138

136:                                              ; preds = %106, %100
  %137 = load ptr, ptr %5, align 8
  store ptr %137, ptr %4, align 8
  store i32 1, ptr %11, align 4
  br label %147

138:                                              ; preds = %111
  br label %139

139:                                              ; preds = %138, %76
  br label %140

140:                                              ; preds = %139, %45
  %141 = load ptr, ptr %5, align 8
  %142 = getelementptr inbounds nuw %struct.conversation, ptr %141, i32 0, i32 7
  %143 = load ptr, ptr %142, align 8
  %144 = load ptr, ptr %9, align 8
  %145 = getelementptr inbounds nuw %struct.conversation, ptr %144, i32 0, i32 7
  store ptr %143, ptr %145, align 8
  %146 = load ptr, ptr %9, align 8
  store ptr %146, ptr %4, align 8
  store i32 1, ptr %11, align 4
  br label %147

147:                                              ; preds = %140, %136
  call void @llvm.lifetime.end.p0(i64 4, ptr %10) #12
  call void @llvm.lifetime.end.p0(i64 8, ptr %9) #12
  br label %150

148:                                              ; preds = %21, %3
  %149 = load ptr, ptr %5, align 8
  store ptr %149, ptr %4, align 8
  store i32 1, ptr %11, align 4
  br label %150

150:                                              ; preds = %148, %147
  call void @llvm.lifetime.end.p0(i64 4, ptr %8) #12
  %151 = load ptr, ptr %4, align 8
  ret ptr %151
}