; Function Attrs: null_pointer_is_valid sspstrong uwtable
define internal fastcc noundef ptr @conversation_create_from_template(ptr noundef nonnull readonly captures(ret: address, provenance) %0, ptr noundef captures(address_is_null) %1, i32 noundef %2) unnamed_addr #0 {
  %4 = getelementptr inbounds nuw i8, ptr %0, i64 64
  %5 = load ptr, ptr %4, align 8
  br label %6

6:                                                ; preds = %9, %3
  %.0.i = phi i64 [ 0, %3 ], [ %10, %9 ]
  %7 = getelementptr %struct.conversation_element, ptr %5, i64 %.0.i
  %8 = load i32, ptr %7, align 8
  %.not.i = icmp eq i32 %8, 0
  br i1 %.not.i, label %conversation_get_key_type.exit, label %9

9:                                                ; preds = %6
  %10 = add nuw nsw i64 %.0.i, 1
  %exitcond.not.i = icmp eq i64 %10, 8
  br i1 %exitcond.not.i, label %11, label %6, !llvm.loop !14

11:                                               ; preds = %9
  tail call void (ptr, ...) @proto_report_dissector_bug(ptr noundef nonnull @.str, ptr noundef nonnull @.str.1, i32 noundef 203, ptr noundef nonnull @.str.28) #16
  unreachable

conversation_get_key_type.exit:                   ; preds = %6
  %12 = getelementptr inbounds nuw i8, ptr %7, i64 8
  %13 = load i32, ptr %12, align 8
  %14 = getelementptr inbounds nuw i8, ptr %0, i64 56
  %15 = load i32, ptr %14, align 8
  %16 = and i32 %15, 8
  %17 = icmp ne i32 %16, 0
  %18 = icmp ne i32 %13, 3
  %or.cond = select i1 %17, i1 %18, i1 false
  br i1 %or.cond, label %19, label %is_no_addr2_key.exit

19:                                               ; preds = %conversation_get_key_type.exit
  %20 = and i32 %15, -12
  %21 = and i32 %15, 1
  %.not = icmp eq i32 %21, 0
  %22 = and i32 %15, 3
  %or.cond43.not = icmp eq i32 %22, 3
  br i1 %or.cond43.not, label %23, label %is_no_addr2_port2_key.exit

23:                                               ; preds = %19
  %24 = load i32, ptr %5, align 8
  %25 = icmp eq i32 %24, 1
  br i1 %25, label %26, label %is_no_addr2_key.exit

26:                                               ; preds = %23
  %27 = getelementptr i8, ptr %5, i64 32
  %28 = load i32, ptr %27, align 8
  %29 = icmp eq i32 %28, 2
  br i1 %29, label %30, label %is_no_addr2_port2_key.exit.thread48.thread

30:                                               ; preds = %26
  %31 = getelementptr i8, ptr %5, i64 64
  %32 = load i32, ptr %31, align 8
  %33 = icmp eq i32 %32, 0
  br i1 %33, label %34, label %is_no_addr2_port2_key.exit.thread48.thread

34:                                               ; preds = %30
  %35 = getelementptr inbounds nuw i8, ptr %0, i64 28
  %36 = load i32, ptr %35, align 4
  %37 = getelementptr inbounds nuw i8, ptr %5, i64 8
  %38 = getelementptr i8, ptr %5, i64 40
  %39 = load i32, ptr %38, align 8
  %40 = tail call ptr @conversation_new(i32 noundef %36, ptr noundef nonnull %37, ptr noundef %1, i32 noundef %13, i32 noundef %39, i32 noundef %2, i32 noundef %20)
  br label %85

is_no_addr2_port2_key.exit:                       ; preds = %19
  %41 = and i32 %15, 2
  %.not40 = icmp eq i32 %41, 0
  br i1 %.not40, label %is_no_port2_key.exit, label %is_no_addr2_port2_key.exit.thread48

is_no_addr2_port2_key.exit.thread48:              ; preds = %is_no_addr2_port2_key.exit
  %.pr.pre = load i32, ptr %5, align 8
  %42 = icmp eq i32 %.pr.pre, 1
  br i1 %42, label %is_no_addr2_port2_key.exit.thread48.thread, label %is_no_port2_key.exit

is_no_addr2_port2_key.exit.thread48.thread:       ; preds = %30, %26, %is_no_addr2_port2_key.exit.thread48
  %43 = getelementptr i8, ptr %5, i64 32
  %44 = load i32, ptr %43, align 8
  %45 = icmp eq i32 %44, 2
  br i1 %45, label %46, label %is_no_port2_key.exit

46:                                               ; preds = %is_no_addr2_port2_key.exit.thread48.thread
  %47 = getelementptr i8, ptr %5, i64 64
  %48 = load i32, ptr %47, align 8
  %49 = icmp eq i32 %48, 1
  br i1 %49, label %50, label %is_no_port2_key.exit

50:                                               ; preds = %46
  %51 = getelementptr i8, ptr %5, i64 96
  %52 = load i32, ptr %51, align 8
  %53 = icmp eq i32 %52, 0
  br i1 %53, label %54, label %is_no_port2_key.exit

54:                                               ; preds = %50
  %55 = getelementptr inbounds nuw i8, ptr %0, i64 28
  %56 = load i32, ptr %55, align 4
  %57 = getelementptr inbounds nuw i8, ptr %5, i64 8
  %58 = getelementptr i8, ptr %5, i64 72
  %59 = getelementptr i8, ptr %5, i64 40
  %60 = load i32, ptr %59, align 8
  %61 = tail call ptr @conversation_new(i32 noundef %56, ptr noundef nonnull %57, ptr noundef %58, i32 noundef %13, i32 noundef %60, i32 noundef %2, i32 noundef %20)
  br label %85

is_no_port2_key.exit:                             ; preds = %50, %46, %is_no_addr2_port2_key.exit.thread48.thread, %is_no_addr2_port2_key.exit.thread48, %is_no_addr2_port2_key.exit
  br i1 %.not, label %is_no_addr2_key.exit, label %62

62:                                               ; preds = %is_no_port2_key.exit
  %.pr52 = load i32, ptr %5, align 8
  %63 = icmp eq i32 %.pr52, 1
  br i1 %63, label %64, label %is_no_addr2_key.exit

64:                                               ; preds = %62
  %65 = getelementptr i8, ptr %5, i64 32
  %66 = load i32, ptr %65, align 8
  %67 = icmp eq i32 %66, 2
  br i1 %67, label %68, label %is_no_addr2_key.exit

68:                                               ; preds = %64
  %69 = getelementptr i8, ptr %5, i64 64
  %70 = load i32, ptr %69, align 8
  %71 = icmp eq i32 %70, 2
  br i1 %71, label %72, label %is_no_addr2_key.exit

72:                                               ; preds = %68
  %73 = getelementptr i8, ptr %5, i64 96
  %74 = load i32, ptr %73, align 8
  %75 = icmp eq i32 %74, 0
  br i1 %75, label %76, label %is_no_addr2_key.exit

76:                                               ; preds = %72
  %77 = getelementptr inbounds nuw i8, ptr %0, i64 28
  %78 = load i32, ptr %77, align 4
  %79 = getelementptr inbounds nuw i8, ptr %5, i64 8
  %80 = getelementptr i8, ptr %5, i64 40
  %81 = load i32, ptr %80, align 8
  %82 = getelementptr i8, ptr %5, i64 72
  %83 = load i32, ptr %82, align 8
  %84 = tail call ptr @conversation_new(i32 noundef %78, ptr noundef nonnull %79, ptr noundef %1, i32 noundef %13, i32 noundef %81, i32 noundef %83, i32 noundef %20)
  br label %85

85:                                               ; preds = %54, %76, %34
  %.038 = phi ptr [ %40, %34 ], [ %61, %54 ], [ %84, %76 ]
  %86 = getelementptr inbounds nuw i8, ptr %0, i64 48
  %87 = load ptr, ptr %86, align 8
  %88 = getelementptr inbounds nuw i8, ptr %.038, i64 48
  store ptr %87, ptr %88, align 8
  br label %is_no_addr2_key.exit

is_no_addr2_key.exit:                             ; preds = %23, %72, %68, %64, %62, %conversation_get_key_type.exit, %85, %is_no_port2_key.exit
  %.1 = phi ptr [ %.038, %85 ], [ %0, %is_no_port2_key.exit ], [ %0, %conversation_get_key_type.exit ], [ %0, %62 ], [ %0, %64 ], [ %0, %68 ], [ %0, %72 ], [ %0, %23 ]
  ret ptr %.1
}